; Function Attrs: mustprogress uwtable
define internal noundef ptr @"_ZZN4pkpy6FileIO9_registerEPNS_2VMEPNS_8PyObjectES4_EN3$_38__invokeES2_NS_8ArgsViewE"(ptr noundef %0, ptr readonly captures(none) %1, ptr readnone captures(none) %2) #3 align 2 personality ptr @__gxx_personality_v0 {
  %4 = alloca i64, align 8
  %5 = alloca %"struct.pkpy::Str", align 8
  call void @llvm.lifetime.start.p0(i64 32, ptr nonnull %5)
  %6 = load ptr, ptr %1, align 8
  %7 = getelementptr inbounds nuw i8, ptr %6, i64 24
  %8 = load ptr, ptr %7, align 8
  %9 = tail call i64 @ftell(ptr noundef %8)
  %10 = icmp eq i64 %9, -1
  br i1 %10, label %11, label %18

11:                                               ; preds = %3
  %12 = tail call ptr @__errno_location() #29
  %13 = load i32, ptr %12, align 4
  %14 = tail call ptr @strerror(i32 noundef %13) #26
  call void @_ZN4pkpy3StrC1EPKc(ptr noundef nonnull align 8 dereferenceable(32) %5, ptr noundef %14)
  %15 = invoke i16 @_ZN4pkpy7StrName3getESt17basic_string_viewIcSt11char_traitsIcEE(i64 7, ptr nonnull @.str.38)
          to label %.noexc.i unwind label %16

.noexc.i:                                         ; preds = %11
  invoke void @_ZN4pkpy2VM15__builtin_errorENS_7StrNameERKNS_3StrE(ptr noundef nonnull align 8 dereferenceable(264913) %0, i16 %15, ptr noundef nonnull align 8 dereferenceable(32) %5)
          to label %.thread.i unwind label %16

.thread.i:                                        ; preds = %.noexc.i
  call void @_ZN4pkpy3StrD1Ev(ptr noundef nonnull align 8 dereferenceable(32) %5) #26
  call void @llvm.lifetime.start.p0(i64 8, ptr nonnull %4)
  store i64 -1, ptr %4, align 8
  br label %23

16:                                               ; preds = %.noexc.i, %11
  %17 = landingpad { ptr, i32 }
          cleanup
  call void @_ZN4pkpy3StrD1Ev(ptr noundef nonnull align 8 dereferenceable(32) %5) #26
  resume { ptr, i32 } %17

18:                                               ; preds = %3
  call void @llvm.lifetime.start.p0(i64 8, ptr nonnull %4)
  store i64 %9, ptr %4, align 8
  %or.cond.i.i = icmp ult i64 %9, 1152921504606846976
  br i1 %or.cond.i.i, label %19, label %23

19:                                               ; preds = %18
  %20 = shl nuw nsw i64 %9, 2
  %21 = or disjoint i64 %20, 2
  %22 = inttoptr i64 %21 to ptr
  br label %"_ZZN4pkpy6FileIO9_registerEPNS_2VMEPNS_8PyObjectES4_ENK3$_3clES2_NS_8ArgsViewE.exit"

23:                                               ; preds = %18, %.thread.i
  %24 = getelementptr inbounds nuw i8, ptr %0, i64 16
  %25 = call noundef ptr @_ZN4pkpy11ManagedHeap5gcnewIlJRlEEEPNS_8PyObjectENS_4TypeEDpOT0_(ptr noundef nonnull align 8 dereferenceable(84) %24, i16 2, ptr noundef nonnull align 8 dereferenceable(8) %4)
  br label %"_ZZN4pkpy6FileIO9_registerEPNS_2VMEPNS_8PyObjectES4_ENK3$_3clES2_NS_8ArgsViewE.exit"

"_ZZN4pkpy6FileIO9_registerEPNS_2VMEPNS_8PyObjectES4_ENK3$_3clES2_NS_8ArgsViewE.exit": ; preds = %19, %23
  %.0.i.i = phi ptr [ %22, %19 ], [ %25, %23 ]
  call void @llvm.lifetime.end.p0(i64 8, ptr nonnull %4)
  call void @llvm.lifetime.end.p0(i64 32, ptr nonnull %5)
  ret ptr %.0.i.i
}